target datalayout = "e-m:e-p270:32:32-p271:32:32-p272:64:64-i64:64-i128:128-f80:128-n8:16:32:64-S128"
target triple = "x86_64-pc-linux-gnu"

%"class.datalog::table_signature" = type <{ %"class.datalog::tr_infrastructure<datalog::table_traits>::signature_base", i32, [4 x i8] }>
%"class.datalog::tr_infrastructure<datalog::table_traits>::signature_base" = type { %class.svector.134 }
%class.svector.134 = type { %class.vector.135 }
%class.vector.135 = type { ptr }
%"class.datalog::tr_infrastructure<datalog::table_traits>::base_ancestor" = type <{ ptr, ptr, %"class.datalog::table_signature", i32, [4 x i8] }>
%"class.datalog::relation_manager::auxiliary_table_transformer_fn" = type { ptr, %class.svector.134 }

; Function Attrs: mustprogress nounwind uwtable
define linkonce_odr hidden void @_ZN6vectorImLb0EjEC2Ev(ptr noundef nonnull align 8 dereferenceable(8) %0) unnamed_addr #4 comdat align 2 {
  %2 = alloca ptr, align 8
  store ptr %0, ptr %2, align 8, !tbaa !409
  %3 = load ptr, ptr %2, align 8
  %4 = getelementptr inbounds nuw %class.vector.135, ptr %3, i32 0, i32 0
  store ptr null, ptr %4, align 8, !tbaa !412
  ret void
}

; Function Attrs: mustprogress nounwind uwtable
define linkonce_odr hidden void @_ZN7svectorImjEC2Ev(ptr noundef nonnull align 8 dereferenceable(8) %0) unnamed_addr #4 comdat align 2 {
  %2 = alloca ptr, align 8
  store ptr %0, ptr %2, align 8, !tbaa !415
  %3 = load ptr, ptr %2, align 8
  call void @_ZN6vectorImLb0EjEC2Ev(ptr noundef nonnull align 8 dereferenceable(8) %3) #3
  ret void
}

; Function Attrs: inlinehint mustprogress nounwind uwtable
define linkonce_odr hidden void @_ZN7datalog16relation_manager30auxiliary_table_transformer_fnC2Ev(ptr noundef nonnull align 8 dereferenceable(16) %0) unnamed_addr #7 comdat align 2 {
  %2 = alloca ptr, align 8
  store ptr %0, ptr %2, align 8, !tbaa !719
  %3 = load ptr, ptr %2, align 8
  store ptr getelementptr inbounds inrange(-16, 32) ({ [6 x ptr] }, ptr @_ZTVN7datalog16relation_manager30auxiliary_table_transformer_fnE, i32 0, i32 0, i32 2), ptr %3, align 8, !tbaa !8
  %4 = getelementptr inbounds nuw %"class.datalog::relation_manager::auxiliary_table_transformer_fn", ptr %3, i32 0, i32 1
  call void @_ZN7svectorImjEC2Ev(ptr noundef nonnull align 8 dereferenceable(8) %4) #3
  ret void
}

; Function Attrs: mustprogress uwtable
define linkonce_odr hidden void @_ZN7datalog16relation_manager23default_table_rename_fnC2ERKNS_15table_signatureEjPKj(ptr noundef nonnull align 8 dereferenceable(48) %0, ptr noundef nonnull align 8 dereferenceable(12) %1, i32 noundef %2, ptr noundef %3) unnamed_addr #5 comdat align 2 {
  %5 = alloca ptr, align 8
  %6 = alloca ptr, align 8
  %7 = alloca i32, align 4
  %8 = alloca ptr, align 8
  store ptr %0, ptr %5, align 8, !tbaa !518
  store ptr %1, ptr %6, align 8, !tbaa !362
  store i32 %2, ptr %7, align 4, !tbaa !279
  store ptr %3, ptr %8, align 8, !tbaa !286
  %9 = load ptr, ptr %5, align 8
  %10 = load ptr, ptr %6, align 8, !tbaa !362
  %11 = load i32, ptr %7, align 4, !tbaa !279
  %12 = load ptr, ptr %8, align 8, !tbaa !286
  call void @_ZN7datalog17tr_infrastructureINS_12table_traitsEE20convenient_rename_fnC2ERKNS_15table_signatureEjPKj(ptr noundef nonnull align 8 dereferenceable(32) %9, ptr noundef nonnull align 8 dereferenceable(12) %10, i32 noundef %11, ptr noundef %12)
  %13 = getelementptr inbounds i8, ptr %9, i64 32
  call void @_ZN7datalog16relation_manager30auxiliary_table_transformer_fnC2Ev(ptr noundef nonnull align 8 dereferenceable(16) %13) #3
  store ptr getelementptr inbounds inrange(-16, 40) ({ [7 x ptr], [6 x ptr] }, ptr @_ZTVN7datalog16relation_manager23default_table_rename_fnE, i32 0, i32 0, i32 2), ptr %9, align 8, !tbaa !8
  %14 = getelementptr inbounds i8, ptr %9, i64 32
  store ptr getelementptr inbounds inrange(-16, 32) ({ [7 x ptr], [6 x ptr] }, ptr @_ZTVN7datalog16relation_manager23default_table_rename_fnE, i32 0, i32 1, i32 2), ptr %14, align 8, !tbaa !8
  ret void
}

; Function Attrs: mustprogress nounwind uwtable
define linkonce_odr hidden noundef nonnull align 8 dereferenceable(12) ptr @_ZNK7datalog17tr_infrastructureINS_12table_traitsEE13base_ancestor13get_signatureEv(ptr noundef nonnull align 8 dereferenceable(36) %0) #4 comdat align 2 {
  %2 = alloca ptr, align 8
  store ptr %0, ptr %2, align 8, !tbaa !377
  %3 = load ptr, ptr %2, align 8
  %4 = getelementptr inbounds nuw %"class.datalog::tr_infrastructure<datalog::table_traits>::base_ancestor", ptr %3, i32 0, i32 2
  ret ptr %4
}

; Function Attrs: mustprogress nounwind uwtable
define linkonce_odr hidden noundef nonnull align 8 dereferenceable(32) ptr @_ZNK7datalog17tr_infrastructureINS_12table_traitsEE13base_ancestor10get_pluginEv(ptr noundef nonnull align 8 dereferenceable(36) %0) #4 comdat align 2 {
  %2 = alloca ptr, align 8
  store ptr %0, ptr %2, align 8, !tbaa !377
  %3 = load ptr, ptr %2, align 8
  %4 = getelementptr inbounds nuw %"class.datalog::tr_infrastructure<datalog::table_traits>::base_ancestor", ptr %3, i32 0, i32 1
  %5 = load ptr, ptr %4, align 8, !tbaa !379
  ret ptr %5
}

; Function Attrs: mustprogress uwtable
define hidden noundef ptr @_ZN7datalog16relation_manager12mk_rename_fnERKNS_10table_baseEjPKj(ptr noundef nonnull align 8 dereferenceable(200) %0, ptr noundef nonnull align 8 dereferenceable(36) %1, i32 noundef %2, ptr noundef %3) #5 align 2 {
  %5 = alloca ptr, align 8
  %6 = alloca ptr, align 8
  %7 = alloca i32, align 4
  %8 = alloca ptr, align 8
  %9 = alloca ptr, align 8
  store ptr %0, ptr %5, align 8, !tbaa !3
  store ptr %1, ptr %6, align 8, !tbaa !375
  store i32 %2, ptr %7, align 4, !tbaa !279
  store ptr %3, ptr %8, align 8, !tbaa !286
  call void @llvm.lifetime.start.p0(i64 8, ptr %9) #3
  %10 = load ptr, ptr %6, align 8, !tbaa !375
  %11 = call noundef nonnull align 8 dereferenceable(32) ptr @_ZNK7datalog17tr_infrastructureINS_12table_traitsEE13base_ancestor10get_pluginEv(ptr noundef nonnull align 8 dereferenceable(36) %10)
  %12 = load ptr, ptr %6, align 8, !tbaa !375
  %13 = load i32, ptr %7, align 4, !tbaa !279
  %14 = load ptr, ptr %8, align 8, !tbaa !286
  %15 = load ptr, ptr %11, align 8, !tbaa !8
  %16 = getelementptr inbounds ptr, ptr %15, i64 13
  %17 = load ptr, ptr %16, align 8
  %18 = call noundef ptr %17(ptr noundef nonnull align 8 dereferenceable(32) %11, ptr noundef nonnull align 8 dereferenceable(36) %12, i32 noundef %13, ptr noundef %14)
  store ptr %18, ptr %9, align 8, !tbaa !510
  %19 = load ptr, ptr %9, align 8, !tbaa !510
  %20 = icmp ne ptr %19, null
  br i1 %20, label %27, label %21

21:                                               ; preds = %4
  %22 = call noalias noundef ptr @_ZN6memory8allocateEm(i64 noundef 48)
  %23 = load ptr, ptr %6, align 8, !tbaa !375
  %24 = call noundef nonnull align 8 dereferenceable(12) ptr @_ZNK7datalog17tr_infrastructureINS_12table_traitsEE13base_ancestor13get_signatureEv(ptr noundef nonnull align 8 dereferenceable(36) %23)
  %25 = load i32, ptr %7, align 4, !tbaa !279
  %26 = load ptr, ptr %8, align 8, !tbaa !286
  call void @_ZN7datalog16relation_manager23default_table_rename_fnC2ERKNS_15table_signatureEjPKj(ptr noundef nonnull align 8 dereferenceable(48) %22, ptr noundef nonnull align 8 dereferenceable(12) %24, i32 noundef %25, ptr noundef %26)
  store ptr %22, ptr %9, align 8, !tbaa !510
  br label %27

27:                                               ; preds = %21, %4
  %28 = load ptr, ptr %9, align 8, !tbaa !510
  call void @llvm.lifetime.end.p0(i64 8, ptr %9) #3
  ret ptr %28
}