; Function Attrs: mustprogress uwtable
define hidden noundef ptr @_ZN7datalog16relation_manager12mk_rename_fnERKNS_10table_baseEjPKj(ptr noundef nonnull readnone align 8 captures(none) dereferenceable(200) %0, ptr noundef nonnull align 8 dereferenceable(36) %1, i32 noundef %2, ptr noundef %3) local_unnamed_addr #4 align 2 {
  %5 = getelementptr inbounds nuw i8, ptr %1, i64 8
  %6 = load ptr, ptr %5, align 8, !tbaa !382
  %7 = load ptr, ptr %6, align 8, !tbaa !3
  %8 = getelementptr inbounds nuw i8, ptr %7, i64 104
  %9 = load ptr, ptr %8, align 8
  %10 = tail call noundef ptr %9(ptr noundef nonnull align 8 dereferenceable(32) %6, ptr noundef nonnull align 8 dereferenceable(36) %1, i32 noundef %2, ptr noundef %3)
  %.not = icmp eq ptr %10, null
  br i1 %.not, label %11, label %16

11:                                               ; preds = %4
  %12 = tail call noalias noundef ptr @_ZN6memory8allocateEm(i64 noundef 48)
  %13 = getelementptr inbounds nuw i8, ptr %1, i64 16
  tail call void @_ZN7datalog17tr_infrastructureINS_12table_traitsEE20convenient_rename_fnC2ERKNS_15table_signatureEjPKj(ptr noundef nonnull align 8 dereferenceable(48) %12, ptr noundef nonnull align 8 dereferenceable(12) %13, i32 noundef %2, ptr noundef %3)
  %14 = getelementptr inbounds nuw i8, ptr %12, i64 32
  %15 = getelementptr inbounds nuw i8, ptr %12, i64 40
  store ptr null, ptr %15, align 8, !tbaa !373
  store ptr getelementptr inbounds nuw inrange(-16, 40) (i8, ptr @_ZTVN7datalog16relation_manager23default_table_rename_fnE, i64 16), ptr %12, align 8, !tbaa !3
  store ptr getelementptr inbounds nuw inrange(-16, 32) (i8, ptr @_ZTVN7datalog16relation_manager23default_table_rename_fnE, i64 72), ptr %14, align 8, !tbaa !3
  br label %16

16:                                               ; preds = %11, %4
  %.0 = phi ptr [ %10, %4 ], [ %12, %11 ]
  ret ptr %.0
}